target datalayout = "e-m:e-p270:32:32-p271:32:32-p272:64:64-i64:64-i128:128-f80:128-n8:16:32:64-S128"
target triple = "x86_64-pc-linux-gnu"

%struct.pubkey = type { i32, ptr, i64 }
%struct.anon = type { i32, ptr, i64, [10 x %struct.pubkey] }

@.str.2 = private unnamed_addr constant [40 x i8] c"../openssl/test/evp_pkey_dparams_test.c\00", align 1
@.str.3 = private unnamed_addr constant [84 x i8] c"in = BIO_new_mem_buf(pkey_params[id].param_bin, (int)pkey_params[id].param_bin_len)\00", align 1
@.str.4 = private unnamed_addr constant [37 x i8] c"d2i_KeyParams_bio(type, &in_key, in)\00", align 1
@.str.5 = private unnamed_addr constant [27 x i8] c"out = BIO_new(BIO_s_mem())\00", align 1
@.str.6 = private unnamed_addr constant [31 x i8] c"i2d_KeyParams_bio(out, in_key)\00", align 1
@.str.7 = private unnamed_addr constant [2 x i8] c"0\00", align 1
@.str.8 = private unnamed_addr constant [42 x i8] c"out_len = BIO_get_mem_data(out, &out_bin)\00", align 1
@.str.9 = private unnamed_addr constant [26 x i8] c"pkey_params[id].param_bin\00", align 1
@.str.10 = private unnamed_addr constant [8 x i8] c"out_bin\00", align 1

; Function Attrs: nounwind uwtable
define internal i32 @params_bio_test(i32 noundef %0) #0 {
  %2 = alloca i32, align 4
  %3 = alloca i32, align 4
  %4 = alloca i32, align 4
  %5 = alloca ptr, align 8
  %6 = alloca ptr, align 8
  %7 = alloca ptr, align 8
  %8 = alloca ptr, align 8
  %9 = alloca ptr, align 8
  %10 = alloca i32, align 4
  store i32 %0, ptr %2, align 4, !tbaa !4
  call void @llvm.lifetime.start.p0(i64 4, ptr %3) #3
  call void @llvm.lifetime.start.p0(i64 4, ptr %4) #3
  call void @llvm.lifetime.start.p0(i64 8, ptr %5) #3
  store ptr null, ptr %5, align 8, !tbaa !8
  call void @llvm.lifetime.start.p0(i64 8, ptr %6) #3
  store ptr null, ptr %6, align 8, !tbaa !8
  call void @llvm.lifetime.start.p0(i64 8, ptr %7) #3
  store ptr null, ptr %7, align 8, !tbaa !11
  call void @llvm.lifetime.start.p0(i64 8, ptr %8) #3
  store ptr null, ptr %8, align 8, !tbaa !11
  call void @llvm.lifetime.start.p0(i64 8, ptr %9) #3
  call void @llvm.lifetime.start.p0(i64 4, ptr %10) #3
  %11 = load i32, ptr %2, align 4, !tbaa !4
  %12 = sext i32 %11 to i64
  %13 = getelementptr inbounds [3 x %struct.anon], ptr @pkey_params, i64 0, i64 %12
  %14 = getelementptr inbounds nuw %struct.anon, ptr %13, i32 0, i32 0
  %15 = load i32, ptr %14, align 8, !tbaa !13
  store i32 %15, ptr %10, align 4, !tbaa !4
  %16 = load i32, ptr %2, align 4, !tbaa !4
  %17 = sext i32 %16 to i64
  %18 = getelementptr inbounds [3 x %struct.anon], ptr @pkey_params, i64 0, i64 %17
  %19 = getelementptr inbounds nuw %struct.anon, ptr %18, i32 0, i32 1
  %20 = load ptr, ptr %19, align 8, !tbaa !17
  %21 = load i32, ptr %2, align 4, !tbaa !4
  %22 = sext i32 %21 to i64
  %23 = getelementptr inbounds [3 x %struct.anon], ptr @pkey_params, i64 0, i64 %22
  %24 = getelementptr inbounds nuw %struct.anon, ptr %23, i32 0, i32 2
  %25 = load i64, ptr %24, align 8, !tbaa !18
  %26 = trunc i64 %25 to i32
  %27 = call ptr @BIO_new_mem_buf(ptr noundef %20, i32 noundef %26)
  store ptr %27, ptr %5, align 8, !tbaa !8
  %28 = call i32 @test_ptr(ptr noundef @.str.2, i32 noundef 254, ptr noundef @.str.3, ptr noundef %27)
  %29 = icmp ne i32 %28, 0
  br i1 %29, label %30, label %71

30:                                               ; preds = %1
  %31 = load i32, ptr %10, align 4, !tbaa !4
  %32 = load ptr, ptr %5, align 8, !tbaa !8
  %33 = call ptr @d2i_KeyParams_bio(i32 noundef %31, ptr noundef %7, ptr noundef %32)
  %34 = call i32 @test_ptr(ptr noundef @.str.2, i32 noundef 256, ptr noundef @.str.4, ptr noundef %33)
  %35 = icmp ne i32 %34, 0
  br i1 %35, label %36, label %71

36:                                               ; preds = %30
  %37 = call ptr @BIO_s_mem()
  %38 = call ptr @BIO_new(ptr noundef %37)
  store ptr %38, ptr %6, align 8, !tbaa !8
  %39 = call i32 @test_ptr(ptr noundef @.str.2, i32 noundef 257, ptr noundef @.str.5, ptr noundef %38)
  %40 = icmp ne i32 %39, 0
  br i1 %40, label %41, label %71

41:                                               ; preds = %36
  %42 = load ptr, ptr %6, align 8, !tbaa !8
  %43 = load ptr, ptr %7, align 8, !tbaa !11
  %44 = call i32 @i2d_KeyParams_bio(ptr noundef %42, ptr noundef %43)
  %45 = call i32 @test_int_gt(ptr noundef @.str.2, i32 noundef 259, ptr noundef @.str.6, ptr noundef @.str.7, i32 noundef %44, i32 noundef 0)
  %46 = icmp ne i32 %45, 0
  br i1 %46, label %47, label %71

47:                                               ; preds = %41
  %48 = load ptr, ptr %6, align 8, !tbaa !8
  %49 = call i64 @BIO_ctrl(ptr noundef %48, i32 noundef 3, i64 noundef 0, ptr noundef %9)
  %50 = trunc i64 %49 to i32
  store i32 %50, ptr %4, align 4, !tbaa !4
  %51 = call i32 @test_int_gt(ptr noundef @.str.2, i32 noundef 261, ptr noundef @.str.8, ptr noundef @.str.7, i32 noundef %50, i32 noundef 0)
  %52 = icmp ne i32 %51, 0
  br i1 %52, label %53, label %71

53:                                               ; preds = %47
  %54 = load i32, ptr %2, align 4, !tbaa !4
  %55 = sext i32 %54 to i64
  %56 = getelementptr inbounds [3 x %struct.anon], ptr @pkey_params, i64 0, i64 %55
  %57 = getelementptr inbounds nuw %struct.anon, ptr %56, i32 0, i32 1
  %58 = load ptr, ptr %57, align 8, !tbaa !17
  %59 = load i32, ptr %2, align 4, !tbaa !4
  %60 = sext i32 %59 to i64
  %61 = getelementptr inbounds [3 x %struct.anon], ptr @pkey_params, i64 0, i64 %60
  %62 = getelementptr inbounds nuw %struct.anon, ptr %61, i32 0, i32 2
  %63 = load i64, ptr %62, align 8, !tbaa !18
  %64 = trunc i64 %63 to i32
  %65 = sext i32 %64 to i64
  %66 = load ptr, ptr %9, align 8, !tbaa !19
  %67 = load i32, ptr %4, align 4, !tbaa !4
  %68 = sext i32 %67 to i64
  %69 = call i32 @test_mem_eq(ptr noundef @.str.2, i32 noundef 264, ptr noundef @.str.9, ptr noundef @.str.10, ptr noundef %58, i64 noundef %65, ptr noundef %66, i64 noundef %68)
  %70 = icmp ne i32 %69, 0
  br label %71

71:                                               ; preds = %53, %47, %41, %36, %30, %1
  %72 = phi i1 [ false, %47 ], [ false, %41 ], [ false, %36 ], [ false, %30 ], [ false, %1 ], [ %70, %53 ]
  %73 = zext i1 %72 to i32
  store i32 %73, ptr %3, align 4, !tbaa !4
  %74 = load ptr, ptr %5, align 8, !tbaa !8
  %75 = call i32 @BIO_free(ptr noundef %74)
  %76 = load ptr, ptr %6, align 8, !tbaa !8
  %77 = call i32 @BIO_free(ptr noundef %76)
  %78 = load ptr, ptr %7, align 8, !tbaa !11
  call void @EVP_PKEY_free(ptr noundef %78)
  %79 = load ptr, ptr %8, align 8, !tbaa !11
  call void @EVP_PKEY_free(ptr noundef %79)
  %80 = load i32, ptr %3, align 4, !tbaa !4
  call void @llvm.lifetime.end.p0(i64 4, ptr %10) #3
  call void @llvm.lifetime.end.p0(i64 8, ptr %9) #3
  call void @llvm.lifetime.end.p0(i64 8, ptr %8) #3
  call void @llvm.lifetime.end.p0(i64 8, ptr %7) #3
  call void @llvm.lifetime.end.p0(i64 8, ptr %6) #3
  call void @llvm.lifetime.end.p0(i64 8, ptr %5) #3
  call void @llvm.lifetime.end.p0(i64 4, ptr %4) #3
  call void @llvm.lifetime.end.p0(i64 4, ptr %3) #3
  ret i32 %80
}