; Function Attrs: nounwind uwtable
define internal range(i32 0, 2) i32 @params_bio_test(i32 noundef %0) #0 {
  %2 = alloca ptr, align 8
  %3 = alloca ptr, align 8
  call void @llvm.lifetime.start.p0(i64 8, ptr nonnull %2) #3
  store ptr null, ptr %2, align 8, !tbaa !4
  call void @llvm.lifetime.start.p0(i64 8, ptr nonnull %3) #3
  %4 = sext i32 %0 to i64
  %5 = getelementptr inbounds [3 x %struct.anon], ptr @pkey_params, i64 0, i64 %4
  %6 = load i32, ptr %5, align 8, !tbaa !9
  %7 = getelementptr inbounds nuw i8, ptr %5, i64 8
  %8 = load ptr, ptr %7, align 8, !tbaa !14
  %9 = getelementptr inbounds nuw i8, ptr %5, i64 16
  %10 = load i64, ptr %9, align 8, !tbaa !15
  %11 = trunc i64 %10 to i32
  %12 = tail call ptr @BIO_new_mem_buf(ptr noundef %8, i32 noundef %11) #3
  %13 = tail call i32 @test_ptr(ptr noundef nonnull @.str.2, i32 noundef 254, ptr noundef nonnull @.str.3, ptr noundef %12) #3
  %.not = icmp eq i32 %13, 0
  br i1 %.not, label %36, label %14

14:                                               ; preds = %1
  %15 = call ptr @d2i_KeyParams_bio(i32 noundef %6, ptr noundef nonnull %2, ptr noundef %12) #3
  %16 = call i32 @test_ptr(ptr noundef nonnull @.str.2, i32 noundef 256, ptr noundef nonnull @.str.4, ptr noundef %15) #3
  %.not13 = icmp eq i32 %16, 0
  br i1 %.not13, label %36, label %17

17:                                               ; preds = %14
  %18 = call ptr @BIO_s_mem() #3
  %19 = call ptr @BIO_new(ptr noundef %18) #3
  %20 = call i32 @test_ptr(ptr noundef nonnull @.str.2, i32 noundef 257, ptr noundef nonnull @.str.5, ptr noundef %19) #3
  %.not14 = icmp eq i32 %20, 0
  br i1 %.not14, label %36, label %21

21:                                               ; preds = %17
  %22 = load ptr, ptr %2, align 8, !tbaa !4
  %23 = call i32 @i2d_KeyParams_bio(ptr noundef %19, ptr noundef %22) #3
  %24 = call i32 @test_int_gt(ptr noundef nonnull @.str.2, i32 noundef 259, ptr noundef nonnull @.str.6, ptr noundef nonnull @.str.7, i32 noundef %23, i32 noundef 0) #3
  %.not15 = icmp eq i32 %24, 0
  br i1 %.not15, label %36, label %25

25:                                               ; preds = %21
  %26 = call i64 @BIO_ctrl(ptr noundef %19, i32 noundef 3, i64 noundef 0, ptr noundef nonnull %3) #3
  %27 = trunc i64 %26 to i32
  %28 = call i32 @test_int_gt(ptr noundef nonnull @.str.2, i32 noundef 261, ptr noundef nonnull @.str.8, ptr noundef nonnull @.str.7, i32 noundef %27, i32 noundef 0) #3
  %.not16 = icmp eq i32 %28, 0
  br i1 %.not16, label %36, label %29

29:                                               ; preds = %25
  %sext = shl i64 %10, 32
  %30 = ashr exact i64 %sext, 32
  %31 = load ptr, ptr %3, align 8, !tbaa !16
  %sext17 = shl i64 %26, 32
  %32 = ashr exact i64 %sext17, 32
  %33 = call i32 @test_mem_eq(ptr noundef nonnull @.str.2, i32 noundef 264, ptr noundef nonnull @.str.9, ptr noundef nonnull @.str.10, ptr noundef %8, i64 noundef %30, ptr noundef %31, i64 noundef %32) #3
  %34 = icmp ne i32 %33, 0
  %35 = zext i1 %34 to i32
  br label %36

36:                                               ; preds = %29, %25, %21, %17, %14, %1
  %.0 = phi ptr [ %19, %29 ], [ %19, %25 ], [ %19, %21 ], [ %19, %17 ], [ null, %14 ], [ null, %1 ]
  %37 = phi i32 [ %35, %29 ], [ 0, %25 ], [ 0, %21 ], [ 0, %17 ], [ 0, %14 ], [ 0, %1 ]
  %38 = call i32 @BIO_free(ptr noundef %12) #3
  %39 = call i32 @BIO_free(ptr noundef %.0) #3
  %40 = load ptr, ptr %2, align 8, !tbaa !4
  call void @EVP_PKEY_free(ptr noundef %40) #3
  call void @EVP_PKEY_free(ptr noundef null) #3
  call void @llvm.lifetime.end.p0(i64 8, ptr nonnull %3) #3
  call void @llvm.lifetime.end.p0(i64 8, ptr nonnull %2) #3
  ret i32 %37
}